; Function Attrs: nounwind uwtable
define dso_local ptr @copy_commit_list(ptr noundef readonly %0) local_unnamed_addr #0 {
  %2 = alloca ptr, align 8
  call void @llvm.lifetime.start.p0(i64 8, ptr nonnull %2)
  store ptr null, ptr %2, align 8, !tbaa !90
  %.not5 = icmp eq ptr %0, null
  br i1 %.not5, label %._crit_edge, label %.lr.ph

.lr.ph:                                           ; preds = %1, %.lr.ph
  %.07 = phi ptr [ %5, %.lr.ph ], [ %2, %1 ]
  %.046 = phi ptr [ %7, %.lr.ph ], [ %0, %1 ]
  %3 = load ptr, ptr %.046, align 8, !tbaa !89
  %4 = tail call ptr @xmalloc(i64 noundef 16) #24
  store ptr %3, ptr %4, align 8, !tbaa !89
  store ptr %4, ptr %.07, align 8, !tbaa !90
  %5 = getelementptr inbounds nuw i8, ptr %4, i64 8
  store ptr null, ptr %5, align 8, !tbaa !48
  %6 = getelementptr inbounds nuw i8, ptr %.046, i64 8
  %7 = load ptr, ptr %6, align 8, !tbaa !48
  %.not = icmp eq ptr %7, null
  br i1 %.not, label %._crit_edge.loopexit, label %.lr.ph, !llvm.loop !107

._crit_edge.loopexit:                             ; preds = %.lr.ph
  %.0..0..0..pre = load ptr, ptr %2, align 8, !tbaa !90
  br label %._crit_edge

._crit_edge:                                      ; preds = %._crit_edge.loopexit, %1
  %.0..0. = phi ptr [ %.0..0..0..pre, %._crit_edge.loopexit ], [ null, %1 ]
  call void @llvm.lifetime.end.p0(i64 8, ptr nonnull %2)
  ret ptr %.0..0.
}